EXPORTS 
	??_R0?AUSQArray@@@8 	 DATA
	??_R0?AUSQClass@@@8 	 DATA
	??_R0?AUSQClosure@@@8 	 DATA
	??_R0?AUSQCollectable@@@8 	 DATA
	??_R0?AUSQDelegable@@@8 	 DATA
	??_R0?AUSQFunctionProto@@@8 	 DATA
	??_R0?AUSQGenerator@@@8 	 DATA
	??_R0?AUSQInstance@@@8 	 DATA
	??_R0?AUSQNativeClosure@@@8 	 DATA
	??_R0?AUSQOuter@@@8 	 DATA
	??_R0?AUSQRefCounted@@@8 	 DATA
	??_R0?AUSQString@@@8 	 DATA
	??_R0?AUSQTable@@@8 	 DATA
	??_R0?AUSQUserData@@@8 	 DATA
	??_R0?AUSQVM@@@8 	 DATA
	??_R0?AUSQWeakRef@@@8 	 DATA
	?_OptionsStorage@?1??__local_stdio_printf_options@@9@4_KA 	 DATA
	??$BIN_EXP@P8SQCompiler@@EAAXXZ@SQCompiler@@QEAAXW4SQOpcode@@P80@EAAXXZ_J@Z
	??0RefTable@@QEAA@XZ
	??0SQClass@@QEAA@PEAUSQSharedState@@PEAU0@@Z
	??0SQFuncState@@QEAA@PEAUSQSharedState@@PEAU0@P6AXPEAXPEBD@Z2@Z
	??0SQFunctionProto@@AEAA@PEAUSQSharedState@@@Z
	??0SQInstance@@QEAA@PEAUSQSharedState@@PEAU0@_J@Z
	??0SQInstance@@QEAA@PEAUSQSharedState@@PEAUSQClass@@_J@Z
	??0SQInstruction@@QEAA@XZ
	??0SQLexer@@QEAA@XZ
	??0SQObjectPtr@@QEAA@XZ
	??0SQSharedState@@QEAA@XZ
	??0SQStringTable@@QEAA@PEAUSQSharedState@@@Z
	??0SQTable@@AEAA@PEAUSQSharedState@@_J@Z
	??0SQVM@@QEAA@PEAUSQSharedState@@@Z
	??1?$sqvector@PEAUSQFuncState@@@@QEAA@XZ
	??1?$sqvector@UCallInfo@SQVM@@@@QEAA@XZ
	??1?$sqvector@USQClassMember@@@@QEAA@XZ
	??1?$sqvector@USQExceptionTrap@@@@QEAA@XZ
	??1?$sqvector@USQInstruction@@@@QEAA@XZ
	??1?$sqvector@USQLineInfo@@@@QEAA@XZ
	??1?$sqvector@USQLocalVarInfo@@@@QEAA@XZ
	??1?$sqvector@USQObjectPtr@@@@QEAA@XZ
	??1?$sqvector@USQOuterVar@@@@QEAA@XZ
	??1?$sqvector@_J@@QEAA@XZ
	??1AutoDec@@QEAA@XZ
	??1CallInfo@SQVM@@QEAA@XZ
	??1RefTable@@QEAA@XZ
	??1SQClass@@UEAA@XZ
	??1SQClassMember@@QEAA@XZ
	??1SQClosure@@UEAA@XZ
	??1SQCollectable@@UEAA@XZ
	??1SQCompiler@@QEAA@XZ
	??1SQDelegable@@UEAA@XZ
	??1SQFuncState@@QEAA@XZ
	??1SQFunctionProto@@EEAA@XZ
	??1SQInstance@@UEAA@XZ
	??1SQLexer@@QEAA@XZ
	??1SQLocalVarInfo@@QEAA@XZ
	??1SQObjectPtr@@QEAA@XZ
	??1SQOuterVar@@QEAA@XZ
	??1SQRefCounted@@UEAA@XZ
	??1SQSharedState@@QEAA@XZ
	??1SQStringTable@@QEAA@XZ
	??1SQVM@@UEAA@XZ
	??4SQObjectPtr@@QEAAAEAU0@AEBU0@@Z
	??4SQObjectPtr@@QEAAAEAU0@PEAUSQClosure@@@Z
	??4SQObjectPtr@@QEAAAEAU0@_J@Z
	??4SQObjectPtr@@QEAAAEAU0@_N@Z
	??_7SQArray@@6B@
	??_7SQClass@@6B@
	??_7SQClosure@@6B@
	??_7SQCollectable@@6B@
	??_7SQDelegable@@6B@
	??_7SQFunctionProto@@6B@
	??_7SQGenerator@@6B@
	??_7SQInstance@@6B@
	??_7SQNativeClosure@@6B@
	??_7SQOuter@@6B@
	??_7SQRefCounted@@6B@
	??_7SQString@@6B@
	??_7SQTable@@6B@
	??_7SQUserData@@6B@
	??_7SQVM@@6B@
	??_7SQWeakRef@@6B@
	??_H@YAXPEAX_K1P6APEAX0@Z@Z
	?ARITH_OP@SQVM@@QEAA_N_KAEAUSQObjectPtr@@AEBU2@2@Z
	?Add@RefTable@@AEAAPEAURefNode@1@_KAEAUtagSQObject@@@Z
	?Add@SQStringTable@@QEAAPEAUSQString@@PEBD_J@Z
	?AddInstruction@SQFuncState@@QEAAXAEAUSQInstruction@@@Z
	?AddLineInfos@SQFuncState@@QEAAX_J_N1@Z
	?AddParameter@SQFuncState@@QEAAXAEBUtagSQObject@@@Z
	?AddRef@RefTable@@QEAAXAEAUtagSQObject@@@Z
	?AddToChain@SQCollectable@@SAXPEAPEAU1@PEAU1@@Z
	?AddUTF8@SQLexer@@AEAA_J_K@Z
	?AllocNodes@RefTable@@AEAAX_K@Z
	?AllocNodes@SQStringTable@@AEAAX_J@Z
	?AllocNodes@SQTable@@AEAAX_J@Z
	?AllocStackPos@SQFuncState@@QEAA_JXZ
	?ArithMetaMethod@SQVM@@QEAA_N_JAEBUSQObjectPtr@@1AEAU2@@Z
	?BW_OP@SQVM@@QEAA_N_KAEAUSQObjectPtr@@AEBU2@2@Z
	?BitwiseAndExp@SQCompiler@@QEAAXXZ
	?BitwiseXorExp@SQCompiler@@QEAAXXZ
	?BuildProto@SQFuncState@@QEAAPEAUSQFunctionProto@@XZ
	?CLASS_OP@SQVM@@QEAA_NAEAUSQObjectPtr@@_J1@Z
	?CLOSURE_OP@SQVM@@QEAA_NAEAUSQObjectPtr@@PEAUSQFunctionProto@@_J@Z
	?CMP_OP@SQVM@@QEAA_NW4CmpOP@@AEBUSQObjectPtr@@1AEAU3@@Z
	?Call@SQVM@@QEAA_NAEAUSQObjectPtr@@_J10_K@Z
	?CallDebugHook@SQVM@@QEAAX_J0@Z
	?CallErrorHandler@SQVM@@QEAAXAEAUSQObjectPtr@@@Z
	?CallMetaMethod@SQVM@@QEAA_NAEAUSQObjectPtr@@W4SQMetaMethod@@_J0@Z
	?CallNative@SQVM@@QEAA_NPEAUSQNativeClosure@@_J1AEAUSQObjectPtr@@HAEA_N3@Z
	?CheckTag@@YA_NPEAUSQVM@@P6A_JPEAX1_J@Z1I@Z
	?ChooseArithOpByToken@SQCompiler@@QEAA?AW4SQOpcode@@_J@Z
	?ClassExp@SQCompiler@@QEAAXXZ
	?Clear@SQTable@@QEAAXXZ
	?Clone@SQClosure@@QEAAPEAU1@XZ
	?Clone@SQTable@@QEAAPEAU1@XZ
	?Clone@SQVM@@QEAA_NAEBUSQObjectPtr@@AEAU2@@Z
	?CloseOuters@SQVM@@QEAAXPEAUSQObjectPtr@@@Z
	?CollectGarbage@SQSharedState@@QEAA_JPEAUSQVM@@@Z
	?CommaExpr@SQCompiler@@QEAAXXZ
	?CompExp@SQCompiler@@QEAAXXZ
	?Compile@@YA_NPEAUSQVM@@P6A_JPEAX@Z1PEBDAEAUSQObjectPtr@@_N5@Z
	?Compile@SQCompiler@@QEAA_NAEAUSQObjectPtr@@@Z
	?CompileTypemask@@YA_NAEAV?$sqvector@_J@@PEBD@Z
	?CountOuters@SQFuncState@@QEAA_J_J@Z
	?Create@SQArray@@SAPEAU1@PEAUSQSharedState@@_J@Z
	?Create@SQClosure@@SAPEAU1@PEAUSQSharedState@@PEAUSQFunctionProto@@PEAUSQWeakRef@@@Z
	?Create@SQFunctionProto@@SAPEAU1@PEAUSQSharedState@@_J1111111@Z
	?Create@SQNativeClosure@@SAPEAU1@PEAUSQSharedState@@P6A_JPEAUSQVM@@@Z_J@Z
	?Create@SQString@@SAPEAU1@PEAUSQSharedState@@PEBD_J@Z
	?CreateClassInstance@SQVM@@QEAA_NPEAUSQClass@@AEAUSQObjectPtr@@1@Z
	?CreateDefaultDelegate@@YAPEAUSQTable@@PEAUSQSharedState@@PEBUtagSQRegFunction@@@Z
	?CreateFunction@SQCompiler@@QEAAXAEAUtagSQObject@@_J_N@Z
	?CreateInstance@SQClass@@QEAAPEAUSQInstance@@XZ
	?CreateString@SQFuncState@@QEAA?AUtagSQObject@@PEBD_J@Z
	?CreateTable@SQFuncState@@QEAA?AUtagSQObject@@XZ
	?DeleteSlot@SQVM@@QEAA_NAEBUSQObjectPtr@@0AEAU2@@Z
	?DerefInc@SQVM@@QEAA_N_JAEAUSQObjectPtr@@111_N0@Z
	?DiscardTarget@SQFuncState@@QEAAXXZ
	?DoWhileStatement@SQCompiler@@QEAAXXZ
	?DumpLiteral@@YAXAEAUSQObjectPtr@@@Z
	?Emit2ArgsOP@SQCompiler@@QEAAXW4SQOpcode@@_J@Z
	?EmitDerefOp@SQCompiler@@QEAAXW4SQOpcode@@@Z
	?EmitLoadConstFloat@SQCompiler@@QEAAXM_J@Z
	?EmitLoadConstInt@SQCompiler@@QEAAX_J0@Z
	?EnterFrame@SQVM@@QEAA_N_J0_N@Z
	?EnumStatement@SQCompiler@@QEAAXXZ
	?EqExp@SQCompiler@@QEAAXXZ
	?Error@SQCompiler@@QEAAXPEBDZZ
	?Error@SQFuncState@@QEAAXPEBD@Z
	?Error@SQLexer@@QEAAXPEBD@Z
	?Execute@SQVM@@QEAA_NAEAUSQObjectPtr@@_J10_KW4ExecutionType@1@@Z
	?ExpectScalar@SQCompiler@@QEAA?AUtagSQObject@@XZ
	?Expression@SQCompiler@@QEAAXXZ
	?Extend@SQArray@@QEAAXPEBU1@@Z
	?FOREACH_OP@SQVM@@QEAA_NAEAUSQObjectPtr@@000_JHAEAH@Z
	?Factor@SQCompiler@@QEAA_JXZ
	?FallBackGet@SQVM@@QEAA_JAEBUSQObjectPtr@@0AEAU2@@Z
	?FallBackSet@SQVM@@QEAA_JAEBUSQObjectPtr@@00@Z
	?Finalize@RefTable@@QEAAXXZ
	?Finalize@SQArray@@UEAAXXZ
	?Finalize@SQClass@@UEAAXXZ
	?Finalize@SQClosure@@UEAAXXZ
	?Finalize@SQFunctionProto@@UEAAXXZ
	?Finalize@SQGenerator@@UEAAXXZ
	?Finalize@SQInstance@@UEAAXXZ
	?Finalize@SQNativeClosure@@UEAAXXZ
	?Finalize@SQOuter@@UEAAXXZ
	?Finalize@SQTable@@UEAAXXZ
	?Finalize@SQUserData@@UEAAXXZ
	?Finalize@SQVM@@UEAAXXZ
	?FindOuter@SQVM@@QEAAXAEAUSQObjectPtr@@PEAU2@@Z
	?ForEachStatement@SQCompiler@@QEAAXXZ
	?ForStatement@SQCompiler@@QEAAXXZ
	?FunctionCallArgs@SQCompiler@@QEAAX_N@Z
	?FunctionStatement@SQCompiler@@QEAAXXZ
	?Get@RefTable@@AEAAPEAURefNode@1@AEAUtagSQObject@@AEA_KPEAPEAU21@_N@Z
	?Get@SQTable@@QEAA_NAEBUSQObjectPtr@@AEAU2@@Z
	?Get@SQVM@@QEAA_NAEBUSQObjectPtr@@0AEAU2@_K_J@Z
	?GetAt@SQVM@@QEAAAEAUSQObjectPtr@@_J@Z
	?GetAttributes@SQClass@@QEAA_NAEBUSQObjectPtr@@AEAU2@@Z
	?GetConstant@SQFuncState@@QEAA_JAEBUtagSQObject@@@Z
	?GetIDType@SQLexer@@AEAA_JPEBD_J@Z
	?GetLine@SQFunctionProto@@QEAA_JPEAUSQInstruction@@@Z
	?GetLocal@SQFunctionProto@@QEAAPEBDPEAUSQVM@@_K11@Z
	?GetLocalVariable@SQFuncState@@QEAA_JAEBUtagSQObject@@@Z
	?GetMetaMethod@SQDelegable@@UEAA_NPEAUSQVM@@W4SQMetaMethod@@AEAUSQObjectPtr@@@Z
	?GetMetaMethod@SQInstance@@UEAA_NPEAUSQVM@@W4SQMetaMethod@@AEAUSQObjectPtr@@@Z
	?GetMetaMethodIdxByName@SQSharedState@@QEAA_JAEBUSQObjectPtr@@@Z
	?GetNumericConstant@SQFuncState@@QEAA_JM@Z
	?GetNumericConstant@SQFuncState@@QEAA_J_J@Z
	?GetOuterVariable@SQFuncState@@QEAA_JAEBUtagSQObject@@@Z
	?GetRefCount@RefTable@@QEAA_KAEAUtagSQObject@@@Z
	?GetScratchPad@SQSharedState@@QEAAPEAD_J@Z
	?GetStackSize@SQFuncState@@QEAA_JXZ
	?GetType@SQArray@@UEAA?AW4tagSQObjectType@@XZ
	?GetType@SQClass@@UEAA?AW4tagSQObjectType@@XZ
	?GetType@SQClosure@@UEAA?AW4tagSQObjectType@@XZ
	?GetType@SQFunctionProto@@UEAA?AW4tagSQObjectType@@XZ
	?GetType@SQGenerator@@UEAA?AW4tagSQObjectType@@XZ
	?GetType@SQInstance@@UEAA?AW4tagSQObjectType@@XZ
	?GetType@SQNativeClosure@@UEAA?AW4tagSQObjectType@@XZ
	?GetType@SQOuter@@UEAA?AW4tagSQObjectType@@XZ
	?GetType@SQTable@@UEAA?AW4tagSQObjectType@@XZ
	?GetType@SQUserData@@UEAA?AW4tagSQObjectType@@XZ
	?GetType@SQVM@@UEAA?AW4tagSQObjectType@@XZ
	?GetTypeName@@YAPEBDAEBUSQObjectPtr@@@Z
	?GetUp@SQVM@@QEAAAEAUSQObjectPtr@@_J@Z
	?GetUpTarget@SQFuncState@@QEAA_J_J@Z
	?GetWeakRef@SQRefCounted@@QEAAPEAUSQWeakRef@@W4tagSQObjectType@@@Z
	?IdType2Name@@YAPEBDW4tagSQObjectType@@@Z
	?IfBlock@SQCompiler@@QEAAXXZ
	?IfStatement@SQCompiler@@QEAAXXZ
	?Init@SQInstance@@QEAAXPEAUSQSharedState@@@Z
	?Init@SQLexer@@QEAAXPEAUSQSharedState@@P6A_JPEAX@Z1P6AX1PEBD@Z1@Z
	?Init@SQSharedState@@QEAAXXZ
	?Init@SQVM@@QEAA_NPEAU1@_J@Z
	?Insert@SQArray@@QEAA_N_JAEBUtagSQObject@@@Z
	?InstanceOf@SQInstance@@QEAA_NPEAUSQClass@@@Z
	?InvokeDefaultDelegate@SQVM@@QEAA_NAEBUSQObjectPtr@@0AEAU2@@Z
	?IsConstant@SQFuncState@@QEAA_NAEBUtagSQObject@@AEAU2@@Z
	?IsEqual@SQVM@@SA_NAEBUSQObjectPtr@@0AEA_N@Z
	?IsFalse@SQVM@@SA_NAEAUSQObjectPtr@@@Z
	?IsLocal@SQFuncState@@QEAA_N_K@Z
	?LeaveFrame@SQVM@@QEAAXXZ
	?Lex@SQLexer@@QEAA_JXZ
	?LexBlockComment@SQLexer@@AEAAXXZ
	?LexHexadecimal@@YAXPEBDPEA_K@Z
	?LexInteger@@YAXPEBDPEA_K@Z
	?LexLineComment@SQLexer@@AEAAXXZ
	?LexOctal@@YAXPEBDPEA_K@Z
	?Load@SQClosure@@SA_NPEAUSQVM@@PEAXP6A_J11_J@ZAEAUSQObjectPtr@@@Z
	?Load@SQFunctionProto@@SA_NPEAUSQVM@@PEAXP6A_J11_J@ZAEAUSQObjectPtr@@@Z
	?LocalDeclStatement@SQCompiler@@QEAAXXZ
	?Lock@SQClass@@QEAAXXZ
	?LogicalAndExp@SQCompiler@@QEAAXXZ
	?LogicalOrExp@SQCompiler@@QEAAXXZ
	?Mark@RefTable@@QEAAXPEAPEAUSQCollectable@@@Z
	?Mark@SQArray@@UEAAXPEAPEAUSQCollectable@@@Z
	?Mark@SQClass@@UEAAXPEAPEAUSQCollectable@@@Z
	?Mark@SQClosure@@UEAAXPEAPEAUSQCollectable@@@Z
	?Mark@SQFunctionProto@@UEAAXPEAPEAUSQCollectable@@@Z
	?Mark@SQGenerator@@UEAAXPEAPEAUSQCollectable@@@Z
	?Mark@SQInstance@@UEAAXPEAPEAUSQCollectable@@@Z
	?Mark@SQNativeClosure@@UEAAXPEAPEAUSQCollectable@@@Z
	?Mark@SQOuter@@UEAAXPEAPEAUSQCollectable@@@Z
	?Mark@SQTable@@UEAAXPEAPEAUSQCollectable@@@Z
	?Mark@SQUserData@@UEAAXPEAPEAUSQCollectable@@@Z
	?Mark@SQVM@@UEAAXPEAPEAUSQCollectable@@@Z
	?MarkLocalAsOuter@SQFuncState@@QEAAX_J@Z
	?MarkObject@SQSharedState@@SAXAEAUSQObjectPtr@@PEAPEAUSQCollectable@@@Z
	?MultExp@SQCompiler@@QEAAXXZ
	?NEG_OP@SQVM@@QEAA_NAEAUSQObjectPtr@@AEBU2@@Z
	?NeedGet@SQCompiler@@QEAA_NXZ
	?NewSlot@SQClass@@QEAA_NPEAUSQSharedState@@AEBUSQObjectPtr@@1_N@Z
	?NewSlot@SQTable@@QEAA_NAEBUSQObjectPtr@@0@Z
	?NewSlot@SQVM@@QEAA_NAEBUSQObjectPtr@@00_N@Z
	?NewSlotA@SQVM@@QEAA_NAEBUSQObjectPtr@@000_N1@Z
	?Next@SQClass@@QEAA_JAEBUSQObjectPtr@@AEAU2@1@Z
	?Next@SQLexer@@AEAAXXZ
	?Next@SQString@@QEAA_JAEBUSQObjectPtr@@AEAU2@1@Z
	?Next@SQTable@@QEAA_J_NAEBUSQObjectPtr@@AEAU2@2@Z
	?Null@SQObjectPtr@@QEAAXXZ
	?ObjCmp@SQVM@@QEAA_NAEBUSQObjectPtr@@0AEA_J@Z
	?OptionalSemicolon@SQCompiler@@QEAAXXZ
	?PLOCAL_INC@SQVM@@QEAA_N_JAEAUSQObjectPtr@@11@Z
	?ParseBindEnv@SQCompiler@@QEAA_JXZ
	?ParseTableOrClass@SQCompiler@@QEAAX_J0@Z
	?PlusExp@SQCompiler@@QEAAXXZ
	?Pop@SQVM@@QEAAXXZ
	?Pop@SQVM@@QEAAX_J@Z
	?PopChildState@SQFuncState@@QEAAXXZ
	?PopGet@SQVM@@QEAAAEAUSQObjectPtr@@XZ
	?PopTarget@SQFuncState@@QEAA_JXZ
	?PrefixedExpr@SQCompiler@@QEAAXXZ
	?PrintObjVal@SQVM@@QEAAPEAUSQString@@AEBUSQObjectPtr@@@Z
	?ProcessStringHexEscape@SQLexer@@AEAA_JPEAD_J@Z
	?Push@SQVM@@QEAAXAEBUSQObjectPtr@@@Z
	?PushChildState@SQFuncState@@QEAAPEAU1@PEAUSQSharedState@@@Z
	?PushLocalVariable@SQFuncState@@QEAA_JAEBUtagSQObject@@@Z
	?PushNull@SQVM@@QEAAXXZ
	?PushTarget@SQFuncState@@QEAA_J_J@Z
	?Raise_CompareError@SQVM@@QEAAXAEBUtagSQObject@@0@Z
	?Raise_Error@SQVM@@QEAAXAEBUSQObjectPtr@@@Z
	?Raise_Error@SQVM@@QEAAXPEBDZZ
	?Raise_IdxError@SQVM@@QEAAXAEBUSQObjectPtr@@@Z
	?Raise_ParamTypeError@SQVM@@QEAAX_J00@Z
	?ReadID@SQLexer@@AEAA_JXZ
	?ReadNumber@SQLexer@@AEAA_JXZ
	?ReadObject@@YA_NPEAUSQVM@@PEAXP6A_J11_J@ZAEAUSQObjectPtr@@@Z
	?ReadString@SQLexer@@AEAA_J_J_N@Z
	?Rehash@SQTable@@AEAAX_N@Z
	?Release@RefTable@@QEAA_KAEAUtagSQObject@@@Z
	?Release@SQArray@@UEAAXXZ
	?Release@SQClass@@UEAAXXZ
	?Release@SQClosure@@UEAAXXZ
	?Release@SQFunctionProto@@UEAAXXZ
	?Release@SQGenerator@@UEAAXXZ
	?Release@SQInstance@@UEAAXXZ
	?Release@SQNativeClosure@@UEAAXXZ
	?Release@SQOuter@@UEAAXXZ
	?Release@SQString@@UEAAXXZ
	?Release@SQTable@@UEAAXXZ
	?Release@SQUserData@@UEAAXXZ
	?Release@SQVM@@UEAAXXZ
	?Release@SQWeakRef@@UEAAXXZ
	?RelocateOuters@SQVM@@QEAAXXZ
	?Remove@SQStringTable@@QEAAXPEAUSQString@@@Z
	?Remove@SQTable@@QEAAXAEBUSQObjectPtr@@@Z
	?Remove@SQVM@@QEAAX_J@Z
	?RemoveFromChain@SQCollectable@@SAXPEAPEAU1@PEAU1@@Z
	?Resize@RefTable@@AEAAX_K@Z
	?Resize@SQArray@@QEAAX_J@Z
	?Resize@SQStringTable@@AEAAX_J@Z
	?ResolveBreaks@SQCompiler@@QEAAXPEAUSQFuncState@@_J@Z
	?ResolveContinues@SQCompiler@@QEAAXPEAUSQFuncState@@_J1@Z
	?Resume@SQGenerator@@QEAA_NPEAUSQVM@@AEAUSQObjectPtr@@@Z
	?ResurrectUnreachable@SQSharedState@@QEAA_JPEAUSQVM@@@Z
	?Return@SQVM@@QEAA_N_J0AEAUSQObjectPtr@@@Z
	?RunMark@SQSharedState@@QEAAXPEAUSQVM@@PEAPEAUSQCollectable@@@Z
	?SafeRead@@YA_NPEAUSQVM@@P6A_JPEAX1_J@Z112@Z
	?SafeWrite@@YA_NPEAUSQVM@@P6A_JPEAX1_J@Z112@Z
	?Save@SQClosure@@QEAA_NPEAUSQVM@@PEAXP6A_J11_J@Z@Z
	?Save@SQFunctionProto@@QEAA_NPEAUSQVM@@PEAXP6A_J11_J@Z@Z
	?Set@SQTable@@QEAA_NAEBUSQObjectPtr@@0@Z
	?Set@SQVM@@QEAA_NAEBUSQObjectPtr@@00_J@Z
	?SetAttributes@SQClass@@QEAA_NAEBUSQObjectPtr@@0@Z
	?SetDelegate@SQDelegable@@QEAA_NPEAUSQTable@@@Z
	?SetInstructionParam@SQFuncState@@QEAAX_J00@Z
	?SetInstructionParams@SQFuncState@@QEAAX_J0000@Z
	?SetStackSize@SQFuncState@@QEAAX_J@Z
	?ShiftExp@SQCompiler@@QEAAXXZ
	?ShrinkIfNeeded@SQArray@@QEAAXXZ
	?StartCall@SQVM@@QEAA_NPEAUSQClosure@@_J11_N@Z
	?Statement@SQCompiler@@QEAAX_N@Z
	?Statements@SQCompiler@@QEAAXXZ
	?StringCat@SQVM@@QEAA_NAEBUSQObjectPtr@@0AEAU2@@Z
	?Suspend@SQVM@@QEAA_JXZ
	?SwitchStatement@SQCompiler@@QEAAXXZ
	?TailCall@SQVM@@QEAA_NPEAUSQClosure@@_J1@Z
	?ThrowError@SQCompiler@@SAXPEAXPEBD@Z
	?ToString@SQVM@@QEAA_NAEBUSQObjectPtr@@AEAU2@@Z
	?Tok2Str@SQLexer@@QEAAPEBD_J@Z
	?Top@SQVM@@QEAAAEAUSQObjectPtr@@XZ
	?TopTarget@SQFuncState@@QEAA_JXZ
	?TranslateIndex@@YA_KAEBUSQObjectPtr@@@Z
	?TryCatchStatement@SQCompiler@@QEAAXXZ
	?TypeOf@SQVM@@QEAA_NAEBUSQObjectPtr@@AEAU2@@Z
	?UnMark@SQCollectable@@QEAAXXZ
	?UnaryOP@SQCompiler@@QEAAXW4SQOpcode@@@Z
	?WhileStatement@SQCompiler@@QEAAXXZ
	?WriteObject@@YA_NPEAUSQVM@@PEAXP6A_J11_J@ZAEAUSQObjectPtr@@@Z
	?WriteTag@@YA_NPEAUSQVM@@P6A_JPEAX1_J@Z1I@Z
	?Yield@SQGenerator@@QEAA_NPEAUSQVM@@_J@Z
	?_ClearNodes@SQTable@@AEAAXXZ
	?_getmemberbyhandle@@YA_JPEAUSQVM@@AEAUSQObjectPtr@@PEBUtagSQMemberHandle@@AEAPEAU2@@Z
	?buf_lexfeed@@YA_JPEAX@Z
	?copy@?$sqvector@USQClassMember@@@@QEAAXAEBV1@@Z
	?copy@?$sqvector@_J@@QEAAXAEBV1@@Z
	?isexponent@@YA_J_J@Z
	?push_back@?$sqvector@USQExceptionTrap@@@@QEAAAEAUSQExceptionTrap@@AEBU2@@Z
	?push_back@?$sqvector@USQLocalVarInfo@@@@QEAAAEAUSQLocalVarInfo@@AEBU2@@Z
	?push_back@?$sqvector@USQOuterVar@@@@QEAAAEAUSQOuterVar@@AEBU2@@Z
	?push_back@?$sqvector@_J@@QEAAAEA_JAEB_J@Z
	?resize@?$sqvector@UCallInfo@SQVM@@@@QEAAX_KAEBUCallInfo@SQVM@@@Z
	?resize@?$sqvector@USQClassMember@@@@QEAAX_KAEBUSQClassMember@@@Z
	?resize@?$sqvector@USQObjectPtr@@@@QEAAX_KAEBUSQObjectPtr@@@Z
	?scisodigit@@YA_J_J@Z
	?sq_aux_invalidtype@@YA_JPEAUSQVM@@W4tagSQObjectType@@@Z
	?sq_base_register@@YAXPEAUSQVM@@@Z
	?sq_vm_free@@YAXPEAX_K@Z
	?sq_vm_malloc@@YAPEAX_K@Z
	?sq_vm_realloc@@YAPEAXPEAX_K1@Z
	__local_stdio_printf_options
	_snprintf
	printf
	sq_addref
	sq_arrayappend
	sq_arrayinsert
	sq_arraypop
	sq_arrayremove
	sq_arrayresize
	sq_arrayreverse
	sq_bindenv
	sq_call
	sq_clear
	sq_clone
	sq_close
	sq_cmp
	sq_collectgarbage
	sq_compile
	sq_compilebuffer
	sq_createinstance
	sq_deleteslot
	sq_enabledebuginfo
	sq_free
	sq_get
	sq_getattributes
	sq_getbase
	sq_getbool
	sq_getbyhandle
	sq_getcallee
	sq_getclass
	sq_getclosureinfo
	sq_getclosurename
	sq_getclosureroot
	sq_getdefaultdelegate
	sq_getdelegate
	sq_geterrorfunc
	sq_getfloat
	sq_getforeignptr
	sq_getfreevariable
	sq_getfunctioninfo
	sq_gethash
	sq_getinstanceup
	sq_getinteger
	sq_getlasterror
	sq_getlocal
	sq_getmemberhandle
	sq_getobjtypetag
	sq_getprintfunc
	sq_getrefcount
	sq_getreleasehook
	sq_getscratchpad
	sq_getsharedforeignptr
	sq_getsharedreleasehook
	sq_getsize
	sq_getstackobj
	sq_getstring
	sq_getstringandsize
	sq_getthread
	sq_gettop
	sq_gettype
	sq_gettypetag
	sq_getuserdata
	sq_getuserpointer
	sq_getversion
	sq_getvmrefcount
	sq_getvmreleasehook
	sq_getvmstate
	sq_getweakrefval
	sq_instanceof
	sq_malloc
	sq_move
	sq_newarray
	sq_newclass
	sq_newclosure
	sq_newmember
	sq_newslot
	sq_newtable
	sq_newtableex
	sq_newthread
	sq_newuserdata
	sq_next
	sq_notifyallexceptions
	sq_objtobool
	sq_objtofloat
	sq_objtointeger
	sq_objtostring
	sq_objtouserpointer
	sq_open
	sq_pop
	sq_poptop
	sq_push
	sq_pushbool
	sq_pushconsttable
	sq_pushfloat
	sq_pushinteger
	sq_pushnull
	sq_pushobject
	sq_pushregistrytable
	sq_pushroottable
	sq_pushstring
	sq_pushthread
	sq_pushuserpointer
	sq_rawdeleteslot
	sq_rawget
	sq_rawnewmember
	sq_rawset
	sq_readclosure
	sq_realloc
	sq_release
	sq_remove
	sq_reservestack
	sq_reseterror
	sq_resetobject
	sq_resume
	sq_resurrectunreachable
	sq_set
	sq_setattributes
	sq_setbyhandle
	sq_setclassudsize
	sq_setclosureroot
	sq_setcompilererrorhandler
	sq_setconsttable
	sq_setdebughook
	sq_setdelegate
	sq_seterrorhandler
	sq_setforeignptr
	sq_setfreevariable
	sq_setinstanceup
	sq_setnativeclosurename
	sq_setnativedebughook
	sq_setparamscheck
	sq_setprintfunc
	sq_setreleasehook
	sq_setroottable
	sq_setsharedforeignptr
	sq_setsharedreleasehook
	sq_settop
	sq_settypetag
	sq_setvmreleasehook
	sq_stackinfos
	sq_suspendvm
	sq_tailcall
	sq_throwerror
	sq_throwobject
	sq_tobool
	sq_tostring
	sq_typeof
	sq_wakeupvm
	sq_weakref
	sq_writeclosure
	vsnprintf
