EXPORTS 
	??_R0?AUSQBlob@@@8 	 DATA
	??_R0?AUSQFile@@@8 	 DATA
	??_R0?AUSQStream@@@8 	 DATA
	?_OptionsStorage@?1??__local_stdio_printf_options@@9@4_KA 	 DATA
	??0SQBlob@@QEAA@_J@Z
	??0SQFile@@QEAA@PEAX_N@Z
	??0SQStream@@QEAA@XZ
	??1SQBlob@@UEAA@XZ
	??1SQFile@@UEAA@XZ
	??1SQStream@@UEAA@XZ
	??2@YAPEAX_KPEAX@Z
	??_7SQBlob@@6B@
	??_7SQFile@@6B@
	??_7SQStream@@6B@
	?CanAdvance@SQBlob@@QEAA_N_J@Z
	?Close@SQFile@@QEAAXXZ
	?EOS@SQBlob@@UEAA_NXZ
	?EOS@SQFile@@UEAA_NXZ
	?Flush@SQBlob@@UEAA_JXZ
	?Flush@SQFile@@UEAA_JXZ
	?GetBuf@SQBlob@@QEAAPEAXXZ
	?GetHandle@SQFile@@QEAAPEAXXZ
	?GrowBufOf@SQBlob@@QEAA_N_J@Z
	?IsValid@SQBlob@@UEAA_NXZ
	?IsValid@SQFile@@UEAA_NXZ
	?Len@SQBlob@@UEAA_JXZ
	?Len@SQFile@@UEAA_JXZ
	?Read@SQBlob@@UEAA_JPEAX_J@Z
	?Read@SQFile@@UEAA_JPEAX_J@Z
	?Resize@SQBlob@@QEAA_N_J@Z
	?Seek@SQBlob@@UEAA_J_J0@Z
	?Seek@SQFile@@UEAA_J_J0@Z
	?Tell@SQBlob@@UEAA_JXZ
	?Tell@SQFile@@UEAA_JXZ
	?Write@SQBlob@@UEAA_JPEAX_J@Z
	?Write@SQFile@@UEAA_JPEAX_J@Z
	?_g_io_dofile@@YA_JPEAUSQVM@@@Z
	?_g_io_loadfile@@YA_JPEAUSQVM@@@Z
	?_g_io_writeclosuretofile@@YA_JPEAUSQVM@@@Z
	?_read_byte@@YA_JPEAUIOBuffer@@@Z
	?_read_two_bytes@@YA_JPEAUIOBuffer@@@Z
	?_sqstd_compiler_error@@YAXPEAUSQVM@@PEBD1_J2@Z
	?_stream__cloned@@YA_JPEAUSQVM@@@Z
	?_stream_eos@@YA_JPEAUSQVM@@@Z
	?_stream_flush@@YA_JPEAUSQVM@@@Z
	?_stream_len@@YA_JPEAUSQVM@@@Z
	?_stream_readblob@@YA_JPEAUSQVM@@@Z
	?_stream_readn@@YA_JPEAUSQVM@@@Z
	?_stream_seek@@YA_JPEAUSQVM@@@Z
	?_stream_tell@@YA_JPEAUSQVM@@@Z
	?_stream_writeblob@@YA_JPEAUSQVM@@@Z
	?_stream_writen@@YA_JPEAUSQVM@@@Z
	?declare_stream@@YA_JPEAUSQVM@@PEBDPEAX1PEBUtagSQRegFunction@@3@Z
	?file_read@@YA_JPEAX0_J@Z
	?file_write@@YA_JPEAX0_J@Z
	?init_streamclass@@YAXPEAUSQVM@@@Z
	__local_stdio_printf_options
	_snprintf
	_vfprintf_l
	_vsnprintf
	_vsnprintf_l
	printf
	sqstd_createblob
	sqstd_createfile
	sqstd_dofile
	sqstd_fclose
	sqstd_feof
	sqstd_fflush
	sqstd_fopen
	sqstd_format
	sqstd_fread
	sqstd_fseek
	sqstd_ftell
	sqstd_fwrite
	sqstd_getblob
	sqstd_getblobsize
	sqstd_getfile
	sqstd_loadfile
	sqstd_printcallstack
	sqstd_pushstringf
	sqstd_register_bloblib
	sqstd_register_iolib
	sqstd_register_mathlib
	sqstd_register_stringlib
	sqstd_register_systemlib
	sqstd_rex_compile
	sqstd_rex_free
	sqstd_rex_getsubexp
	sqstd_rex_getsubexpcount
	sqstd_rex_match
	sqstd_rex_search
	sqstd_rex_searchrange
	sqstd_seterrorhandlers
	sqstd_throwerrorf
	sqstd_writeclosuretofile
	vsnprintf
